target datalayout = "e-m:e-p270:32:32-p271:32:32-p272:64:64-i64:64-i128:128-f80:128-n8:16:32:64-S128"
target triple = "x86_64-unknown-linux-gnu"

%"class.std::__cxx11::basic_string" = type { %"struct.std::__cxx11::basic_string<char>::_Alloc_hider", i64, %union.anon }
%"struct.std::__cxx11::basic_string<char>::_Alloc_hider" = type { ptr }
%union.anon = type { i64, [8 x i8] }
%"class.cvc5::internal::parser::OverloadedTypeTrie" = type <{ %"class.cvc5::Term", %"class.std::unordered_map", ptr, i8, [7 x i8] }>
%"class.cvc5::Term" = type { ptr, %"class.std::shared_ptr" }
%"class.std::shared_ptr" = type { %"class.std::__shared_ptr" }
%"class.std::__shared_ptr" = type { ptr, %"class.std::__shared_count" }
%"class.std::__shared_count" = type { ptr }
%"class.std::unordered_map" = type { %"class.std::_Hashtable" }
%"class.std::_Hashtable" = type { ptr, i64, %"struct.std::__detail::_Hash_node_base", i64, %"struct.std::__detail::_Prime_rehash_policy", ptr }
%"struct.std::__detail::_Hash_node_base" = type { ptr }
%"struct.std::__detail::_Prime_rehash_policy" = type { float, i64 }
%"class.cvc5::Sort" = type { ptr, %"class.std::shared_ptr.2" }
%"class.std::shared_ptr.2" = type { %"class.std::__shared_ptr.3" }
%"class.std::__shared_ptr.3" = type { ptr, %"class.std::__shared_count" }
%"class.cvc5::internal::parser::SymbolTable::Implementation" = type { %"class.cvc5::context::Context", %"class.cvc5::context::CDHashMap", %"class.cvc5::context::CDHashMap.51", %"class.cvc5::Term", %"class.cvc5::Sort", %"class.cvc5::internal::parser::OverloadedTypeTrie" }
%"class.cvc5::context::Context" = type { ptr, %"class.std::vector.32", ptr, ptr }
%"class.std::vector.32" = type { %"struct.std::_Vector_base.33" }
%"struct.std::_Vector_base.33" = type { %"struct.std::_Vector_base<cvc5::context::Scope *, std::allocator<cvc5::context::Scope *>>::_Vector_impl" }
%"struct.std::_Vector_base<cvc5::context::Scope *, std::allocator<cvc5::context::Scope *>>::_Vector_impl" = type { %"struct.std::_Vector_base<cvc5::context::Scope *, std::allocator<cvc5::context::Scope *>>::_Vector_impl_data" }
%"struct.std::_Vector_base<cvc5::context::Scope *, std::allocator<cvc5::context::Scope *>>::_Vector_impl_data" = type { ptr, ptr, ptr }
%"class.cvc5::context::CDHashMap" = type { %"class.cvc5::context::ContextObj", %"class.std::unordered_map.37", ptr, ptr }
%"class.cvc5::context::ContextObj" = type { ptr, ptr, ptr, ptr, ptr }
%"class.std::unordered_map.37" = type { %"class.std::_Hashtable.38" }
%"class.std::_Hashtable.38" = type { ptr, i64, %"struct.std::__detail::_Hash_node_base", i64, %"struct.std::__detail::_Prime_rehash_policy", ptr }
%"class.cvc5::context::CDHashMap.51" = type { %"class.cvc5::context::ContextObj", %"class.std::unordered_map.52", ptr, ptr }
%"class.std::unordered_map.52" = type { %"class.std::_Hashtable.53" }
%"class.std::_Hashtable.53" = type { ptr, i64, %"struct.std::__detail::_Hash_node_base", i64, %"struct.std::__detail::_Prime_rehash_policy", ptr }
%"struct.std::__detail::_Node_iterator_base.81" = type { ptr }
%"struct.std::pair.82" = type { %"class.std::__cxx11::basic_string", ptr }
%"class.cvc5::context::CDHashMap<std::__cxx11::basic_string<char>, std::pair<std::vector<cvc5::Sort>, cvc5::Sort>>::iterator" = type { ptr }
%"struct.std::__detail::_Node_const_iterator.182" = type { %"struct.std::__detail::_Node_iterator_base.81" }
%"struct.std::__detail::_Hash_node_value_base.86" = type { %"struct.__gnu_cxx::__aligned_buffer.87" }
%"struct.__gnu_cxx::__aligned_buffer.87" = type { %"union.std::aligned_storage<40, 8>::type" }
%"union.std::aligned_storage<40, 8>::type" = type { [40 x i8] }

; Function Attrs: mustprogress nounwind uwtable
define linkonce_odr hidden noundef ptr @_ZN9__gnu_cxx16__aligned_bufferISt4pairIKNSt7__cxx1112basic_stringIcSt11char_traitsIcESaIcEEEPN4cvc57context11CDOhash_mapIS7_S1_ISt6vectorINS9_4SortESaISD_EESD_ESt4hashIS7_EEEEE7_M_addrEv(ptr noundef nonnull align 8 dereferenceable(40) %this) #5 comdat align 2 {
entry:
  %this.addr = alloca ptr, align 8
  store ptr %this, ptr %this.addr, align 8
  %this1 = load ptr, ptr %this.addr, align 8
  %_M_storage = getelementptr inbounds %"struct.__gnu_cxx::__aligned_buffer.87", ptr %this1, i32 0, i32 0
  ret ptr %_M_storage
}

; Function Attrs: mustprogress nounwind uwtable
define linkonce_odr hidden noundef ptr @_ZN9__gnu_cxx16__aligned_bufferISt4pairIKNSt7__cxx1112basic_stringIcSt11char_traitsIcESaIcEEEPN4cvc57context11CDOhash_mapIS7_S1_ISt6vectorINS9_4SortESaISD_EESD_ESt4hashIS7_EEEEE6_M_ptrEv(ptr noundef nonnull align 8 dereferenceable(40) %this) #5 comdat align 2 {
entry:
  %this.addr = alloca ptr, align 8
  store ptr %this, ptr %this.addr, align 8
  %this1 = load ptr, ptr %this.addr, align 8
  %call = call noundef ptr @_ZN9__gnu_cxx16__aligned_bufferISt4pairIKNSt7__cxx1112basic_stringIcSt11char_traitsIcESaIcEEEPN4cvc57context11CDOhash_mapIS7_S1_ISt6vectorINS9_4SortESaISD_EESD_ESt4hashIS7_EEEEE7_M_addrEv(ptr noundef nonnull align 8 dereferenceable(40) %this1) #3
  ret ptr %call
}

; Function Attrs: mustprogress nounwind uwtable
define linkonce_odr hidden void @_ZNSt8__detail19_Node_iterator_baseISt4pairIKNSt7__cxx1112basic_stringIcSt11char_traitsIcESaIcEEEPN4cvc57context11CDOhash_mapIS7_S1_ISt6vectorINS9_4SortESaISD_EESD_ESt4hashIS7_EEEELb1EEC2EPNS_10_Hash_nodeISL_Lb1EEE(ptr noundef nonnull align 8 dereferenceable(8) %this, ptr noundef %__p) unnamed_addr #5 comdat align 2 {
entry:
  %this.addr = alloca ptr, align 8
  %__p.addr = alloca ptr, align 8
  store ptr %this, ptr %this.addr, align 8
  store ptr %__p, ptr %__p.addr, align 8
  %this1 = load ptr, ptr %this.addr, align 8
  %_M_cur = getelementptr inbounds %"struct.std::__detail::_Node_iterator_base.81", ptr %this1, i32 0, i32 0
  %0 = load ptr, ptr %__p.addr, align 8
  store ptr %0, ptr %_M_cur, align 8
  ret void
}

; Function Attrs: mustprogress nounwind uwtable
define linkonce_odr hidden noundef ptr @_ZNSt8__detail21_Hash_node_value_baseISt4pairIKNSt7__cxx1112basic_stringIcSt11char_traitsIcESaIcEEEPN4cvc57context11CDOhash_mapIS7_S1_ISt6vectorINS9_4SortESaISD_EESD_ESt4hashIS7_EEEEE9_M_valptrEv(ptr noundef nonnull align 8 dereferenceable(40) %this) #5 comdat align 2 {
entry:
  %this.addr = alloca ptr, align 8
  store ptr %this, ptr %this.addr, align 8
  %this1 = load ptr, ptr %this.addr, align 8
  %_M_storage = getelementptr inbounds %"struct.std::__detail::_Hash_node_value_base.86", ptr %this1, i32 0, i32 0
  %call = call noundef ptr @_ZN9__gnu_cxx16__aligned_bufferISt4pairIKNSt7__cxx1112basic_stringIcSt11char_traitsIcESaIcEEEPN4cvc57context11CDOhash_mapIS7_S1_ISt6vectorINS9_4SortESaISD_EESD_ESt4hashIS7_EEEEE6_M_ptrEv(ptr noundef nonnull align 8 dereferenceable(40) %_M_storage) #3
  ret ptr %call
}

; Function Attrs: mustprogress nounwind uwtable
define linkonce_odr hidden void @_ZNSt8__detail20_Node_const_iteratorISt4pairIKNSt7__cxx1112basic_stringIcSt11char_traitsIcESaIcEEEPN4cvc57context11CDOhash_mapIS7_S1_ISt6vectorINS9_4SortESaISD_EESD_ESt4hashIS7_EEEELb0ELb1EEC2EPNS_10_Hash_nodeISL_Lb1EEE(ptr noundef nonnull align 8 dereferenceable(8) %this, ptr noundef %__p) unnamed_addr #5 comdat align 2 {
entry:
  %this.addr = alloca ptr, align 8
  %__p.addr = alloca ptr, align 8
  store ptr %this, ptr %this.addr, align 8
  store ptr %__p, ptr %__p.addr, align 8
  %this1 = load ptr, ptr %this.addr, align 8
  %0 = load ptr, ptr %__p.addr, align 8
  call void @_ZNSt8__detail19_Node_iterator_baseISt4pairIKNSt7__cxx1112basic_stringIcSt11char_traitsIcESaIcEEEPN4cvc57context11CDOhash_mapIS7_S1_ISt6vectorINS9_4SortESaISD_EESD_ESt4hashIS7_EEEELb1EEC2EPNS_10_Hash_nodeISL_Lb1EEE(ptr noundef nonnull align 8 dereferenceable(8) %this1, ptr noundef %0) #3
  ret void
}

; Function Attrs: mustprogress nounwind uwtable
define linkonce_odr hidden noundef nonnull align 8 dereferenceable(40) ptr @_ZNSt8__detail21_Hash_node_value_baseISt4pairIKNSt7__cxx1112basic_stringIcSt11char_traitsIcESaIcEEEPN4cvc57context11CDOhash_mapIS7_S1_ISt6vectorINS9_4SortESaISD_EESD_ESt4hashIS7_EEEEE4_M_vEv(ptr noundef nonnull align 8 dereferenceable(40) %this) #5 comdat align 2 {
entry:
  %this.addr = alloca ptr, align 8
  store ptr %this, ptr %this.addr, align 8
  %this1 = load ptr, ptr %this.addr, align 8
  %call = call noundef ptr @_ZNSt8__detail21_Hash_node_value_baseISt4pairIKNSt7__cxx1112basic_stringIcSt11char_traitsIcESaIcEEEPN4cvc57context11CDOhash_mapIS7_S1_ISt6vectorINS9_4SortESaISD_EESD_ESt4hashIS7_EEEEE9_M_valptrEv(ptr noundef nonnull align 8 dereferenceable(40) %this1) #3
  ret ptr %call
}

; Function Attrs: mustprogress nounwind uwtable
define linkonce_odr hidden ptr @_ZNKSt10_HashtableINSt7__cxx1112basic_stringIcSt11char_traitsIcESaIcEEESt4pairIKS5_PN4cvc57context11CDOhash_mapIS5_S6_ISt6vectorINS8_4SortESaISC_EESC_ESt4hashIS5_EEEESaISK_ENSt8__detail10_Select1stESt8equal_toIS5_ESH_NSM_18_Mod_range_hashingENSM_20_Default_ranged_hashENSM_20_Prime_rehash_policyENSM_17_Hashtable_traitsILb1ELb0ELb1EEEE3endEv(ptr noundef nonnull align 8 dereferenceable(56) %this) #5 comdat align 2 {
entry:
  %retval = alloca %"struct.std::__detail::_Node_const_iterator.182", align 8
  %this.addr = alloca ptr, align 8
  store ptr %this, ptr %this.addr, align 8
  call void @_ZNSt8__detail20_Node_const_iteratorISt4pairIKNSt7__cxx1112basic_stringIcSt11char_traitsIcESaIcEEEPN4cvc57context11CDOhash_mapIS7_S1_ISt6vectorINS9_4SortESaISD_EESD_ESt4hashIS7_EEEELb0ELb1EEC2EPNS_10_Hash_nodeISL_Lb1EEE(ptr noundef nonnull align 8 dereferenceable(8) %retval, ptr noundef null) #3
  %coerce.dive = getelementptr inbounds %"struct.std::__detail::_Node_const_iterator.182", ptr %retval, i32 0, i32 0
  %coerce.dive2 = getelementptr inbounds %"struct.std::__detail::_Node_iterator_base.81", ptr %coerce.dive, i32 0, i32 0
  %0 = load ptr, ptr %coerce.dive2, align 8
  ret ptr %0
}

; Function Attrs: mustprogress nounwind uwtable
define linkonce_odr hidden void @_ZN4cvc57context9CDHashMapINSt7__cxx1112basic_stringIcSt11char_traitsIcESaIcEEESt4pairISt6vectorINS_4SortESaISA_EESA_ESt4hashIS7_EE8iteratorC2EPKNS0_11CDOhash_mapIS7_SD_SF_EE(ptr noundef nonnull align 8 dereferenceable(8) %this, ptr noundef %p) unnamed_addr #5 comdat align 2 {
entry:
  %this.addr = alloca ptr, align 8
  %p.addr = alloca ptr, align 8
  store ptr %this, ptr %this.addr, align 8
  store ptr %p, ptr %p.addr, align 8
  %this1 = load ptr, ptr %this.addr, align 8
  %d_it = getelementptr inbounds %"class.cvc5::context::CDHashMap<std::__cxx11::basic_string<char>, std::pair<std::vector<cvc5::Sort>, cvc5::Sort>>::iterator", ptr %this1, i32 0, i32 0
  %0 = load ptr, ptr %p.addr, align 8
  store ptr %0, ptr %d_it, align 8
  ret void
}

; Function Attrs: mustprogress nounwind uwtable
define linkonce_odr hidden noundef nonnull align 8 dereferenceable(40) ptr @_ZNKSt8__detail20_Node_const_iteratorISt4pairIKNSt7__cxx1112basic_stringIcSt11char_traitsIcESaIcEEEPN4cvc57context11CDOhash_mapIS7_S1_ISt6vectorINS9_4SortESaISD_EESD_ESt4hashIS7_EEEELb0ELb1EEdeEv(ptr noundef nonnull align 8 dereferenceable(8) %this) #5 comdat align 2 {
entry:
  %this.addr = alloca ptr, align 8
  store ptr %this, ptr %this.addr, align 8
  %this1 = load ptr, ptr %this.addr, align 8
  %_M_cur = getelementptr inbounds %"struct.std::__detail::_Node_iterator_base.81", ptr %this1, i32 0, i32 0
  %0 = load ptr, ptr %_M_cur, align 8
  %add.ptr = getelementptr inbounds i8, ptr %0, i64 8
  %call = call noundef nonnull align 8 dereferenceable(40) ptr @_ZNSt8__detail21_Hash_node_value_baseISt4pairIKNSt7__cxx1112basic_stringIcSt11char_traitsIcESaIcEEEPN4cvc57context11CDOhash_mapIS7_S1_ISt6vectorINS9_4SortESaISD_EESD_ESt4hashIS7_EEEEE4_M_vEv(ptr noundef nonnull align 8 dereferenceable(40) %add.ptr) #3
  ret ptr %call
}

; Function Attrs: mustprogress nounwind uwtable
define linkonce_odr noundef zeroext i1 @_ZNSt8__detaileqERKNS_19_Node_iterator_baseISt4pairIKNSt7__cxx1112basic_stringIcSt11char_traitsIcESaIcEEEPN4cvc57context11CDOhash_mapIS7_S1_ISt6vectorINS9_4SortESaISD_EESD_ESt4hashIS7_EEEELb1EEESO_(ptr noundef nonnull align 8 dereferenceable(8) %__x, ptr noundef nonnull align 8 dereferenceable(8) %__y) #5 comdat {
entry:
  %__x.addr = alloca ptr, align 8
  %__y.addr = alloca ptr, align 8
  store ptr %__x, ptr %__x.addr, align 8
  store ptr %__y, ptr %__y.addr, align 8
  %0 = load ptr, ptr %__x.addr, align 8
  %_M_cur = getelementptr inbounds %"struct.std::__detail::_Node_iterator_base.81", ptr %0, i32 0, i32 0
  %1 = load ptr, ptr %_M_cur, align 8
  %2 = load ptr, ptr %__y.addr, align 8
  %_M_cur1 = getelementptr inbounds %"struct.std::__detail::_Node_iterator_base.81", ptr %2, i32 0, i32 0
  %3 = load ptr, ptr %_M_cur1, align 8
  %cmp = icmp eq ptr %1, %3
  ret i1 %cmp
}

; Function Attrs: mustprogress nounwind uwtable
define linkonce_odr hidden ptr @_ZNKSt13unordered_mapINSt7__cxx1112basic_stringIcSt11char_traitsIcESaIcEEEPN4cvc57context11CDOhash_mapIS5_St4pairISt6vectorINS6_4SortESaISB_EESB_ESt4hashIS5_EEESG_St8equal_toIS5_ESaIS9_IKS5_SI_EEE3endEv(ptr noundef nonnull align 8 dereferenceable(56) %this) #5 comdat align 2 {
entry:
  %retval = alloca %"struct.std::__detail::_Node_const_iterator.182", align 8
  %this.addr = alloca ptr, align 8
  store ptr %this, ptr %this.addr, align 8
  %this1 = load ptr, ptr %this.addr, align 8
  %_M_h = getelementptr inbounds %"class.std::unordered_map.52", ptr %this1, i32 0, i32 0
  %call = call ptr @_ZNKSt10_HashtableINSt7__cxx1112basic_stringIcSt11char_traitsIcESaIcEEESt4pairIKS5_PN4cvc57context11CDOhash_mapIS5_S6_ISt6vectorINS8_4SortESaISC_EESC_ESt4hashIS5_EEEESaISK_ENSt8__detail10_Select1stESt8equal_toIS5_ESH_NSM_18_Mod_range_hashingENSM_20_Default_ranged_hashENSM_20_Prime_rehash_policyENSM_17_Hashtable_traitsILb1ELb0ELb1EEEE3endEv(ptr noundef nonnull align 8 dereferenceable(56) %_M_h) #3
  %coerce.dive = getelementptr inbounds %"struct.std::__detail::_Node_const_iterator.182", ptr %retval, i32 0, i32 0
  %coerce.dive2 = getelementptr inbounds %"struct.std::__detail::_Node_iterator_base.81", ptr %coerce.dive, i32 0, i32 0
  store ptr %call, ptr %coerce.dive2, align 8
  %coerce.dive3 = getelementptr inbounds %"struct.std::__detail::_Node_const_iterator.182", ptr %retval, i32 0, i32 0
  %coerce.dive4 = getelementptr inbounds %"struct.std::__detail::_Node_iterator_base.81", ptr %coerce.dive3, i32 0, i32 0
  %0 = load ptr, ptr %coerce.dive4, align 8
  ret ptr %0
}

; Function Attrs: mustprogress uwtable
define linkonce_odr hidden ptr @_ZNKSt13unordered_mapINSt7__cxx1112basic_stringIcSt11char_traitsIcESaIcEEEPN4cvc57context11CDOhash_mapIS5_St4pairISt6vectorINS6_4SortESaISB_EESB_ESt4hashIS5_EEESG_St8equal_toIS5_ESaIS9_IKS5_SI_EEE4findERSL_(ptr noundef nonnull align 8 dereferenceable(56) %this, ptr noundef nonnull align 8 dereferenceable(32) %__x) #4 comdat align 2 {
entry:
  %retval = alloca %"struct.std::__detail::_Node_const_iterator.182", align 8
  %this.addr = alloca ptr, align 8
  %__x.addr = alloca ptr, align 8
  store ptr %this, ptr %this.addr, align 8
  store ptr %__x, ptr %__x.addr, align 8
  %this1 = load ptr, ptr %this.addr, align 8
  %_M_h = getelementptr inbounds %"class.std::unordered_map.52", ptr %this1, i32 0, i32 0
  %0 = load ptr, ptr %__x.addr, align 8
  %call = call ptr @_ZNKSt10_HashtableINSt7__cxx1112basic_stringIcSt11char_traitsIcESaIcEEESt4pairIKS5_PN4cvc57context11CDOhash_mapIS5_S6_ISt6vectorINS8_4SortESaISC_EESC_ESt4hashIS5_EEEESaISK_ENSt8__detail10_Select1stESt8equal_toIS5_ESH_NSM_18_Mod_range_hashingENSM_20_Default_ranged_hashENSM_20_Prime_rehash_policyENSM_17_Hashtable_traitsILb1ELb0ELb1EEEE4findERS7_(ptr noundef nonnull align 8 dereferenceable(56) %_M_h, ptr noundef nonnull align 8 dereferenceable(32) %0)
  %coerce.dive = getelementptr inbounds %"struct.std::__detail::_Node_const_iterator.182", ptr %retval, i32 0, i32 0
  %coerce.dive2 = getelementptr inbounds %"struct.std::__detail::_Node_iterator_base.81", ptr %coerce.dive, i32 0, i32 0
  store ptr %call, ptr %coerce.dive2, align 8
  %coerce.dive3 = getelementptr inbounds %"struct.std::__detail::_Node_const_iterator.182", ptr %retval, i32 0, i32 0
  %coerce.dive4 = getelementptr inbounds %"struct.std::__detail::_Node_iterator_base.81", ptr %coerce.dive3, i32 0, i32 0
  %1 = load ptr, ptr %coerce.dive4, align 8
  ret ptr %1
}

; Function Attrs: mustprogress nounwind uwtable
define linkonce_odr hidden noundef zeroext i1 @_ZNK4cvc57context9CDHashMapINSt7__cxx1112basic_stringIcSt11char_traitsIcESaIcEEESt4pairISt6vectorINS_4SortESaISA_EESA_ESt4hashIS7_EE8iteratorneERKSH_(ptr noundef nonnull align 8 dereferenceable(8) %this, ptr noundef nonnull align 8 dereferenceable(8) %i) #5 comdat align 2 {
entry:
  %this.addr = alloca ptr, align 8
  %i.addr = alloca ptr, align 8
  store ptr %this, ptr %this.addr, align 8
  store ptr %i, ptr %i.addr, align 8
  %this1 = load ptr, ptr %this.addr, align 8
  %d_it = getelementptr inbounds %"class.cvc5::context::CDHashMap<std::__cxx11::basic_string<char>, std::pair<std::vector<cvc5::Sort>, cvc5::Sort>>::iterator", ptr %this1, i32 0, i32 0
  %0 = load ptr, ptr %d_it, align 8
  %1 = load ptr, ptr %i.addr, align 8
  %d_it2 = getelementptr inbounds %"class.cvc5::context::CDHashMap<std::__cxx11::basic_string<char>, std::pair<std::vector<cvc5::Sort>, cvc5::Sort>>::iterator", ptr %1, i32 0, i32 0
  %2 = load ptr, ptr %d_it2, align 8
  %cmp = icmp ne ptr %0, %2
  ret i1 %cmp
}

; Function Attrs: mustprogress uwtable
define linkonce_odr hidden void @_ZNK4cvc57context9CDHashMapINSt7__cxx1112basic_stringIcSt11char_traitsIcESaIcEEESt4pairISt6vectorINS_4SortESaISA_EESA_ESt4hashIS7_EE3endEv(ptr noalias sret(%"class.cvc5::context::CDHashMap<std::__cxx11::basic_string<char>, std::pair<std::vector<cvc5::Sort>, cvc5::Sort>>::iterator") align 8 %agg.result, ptr noundef nonnull align 8 dereferenceable(112) %this) #4 comdat align 2 {
entry:
  %result.ptr = alloca ptr, align 8
  %this.addr = alloca ptr, align 8
  store ptr %agg.result, ptr %result.ptr, align 8
  store ptr %this, ptr %this.addr, align 8
  call void @_ZN4cvc57context9CDHashMapINSt7__cxx1112basic_stringIcSt11char_traitsIcESaIcEEESt4pairISt6vectorINS_4SortESaISA_EESA_ESt4hashIS7_EE8iteratorC2EPKNS0_11CDOhash_mapIS7_SD_SF_EE(ptr noundef nonnull align 8 dereferenceable(8) %agg.result, ptr noundef null)
  ret void
}

; Function Attrs: mustprogress uwtable
define linkonce_odr hidden void @_ZNK4cvc57context9CDHashMapINSt7__cxx1112basic_stringIcSt11char_traitsIcESaIcEEESt4pairISt6vectorINS_4SortESaISA_EESA_ESt4hashIS7_EE4findERKS7_(ptr noalias sret(%"class.cvc5::context::CDHashMap<std::__cxx11::basic_string<char>, std::pair<std::vector<cvc5::Sort>, cvc5::Sort>>::iterator") align 8 %agg.result, ptr noundef nonnull align 8 dereferenceable(112) %this, ptr noundef nonnull align 8 dereferenceable(32) %k) #4 comdat align 2 {
entry:
  %result.ptr = alloca ptr, align 8
  %this.addr = alloca ptr, align 8
  %k.addr = alloca ptr, align 8
  %i = alloca %"struct.std::__detail::_Node_const_iterator.182", align 8
  %ref.tmp = alloca %"struct.std::__detail::_Node_const_iterator.182", align 8
  store ptr %agg.result, ptr %result.ptr, align 8
  store ptr %this, ptr %this.addr, align 8
  store ptr %k, ptr %k.addr, align 8
  %this1 = load ptr, ptr %this.addr, align 8
  %d_map = getelementptr inbounds %"class.cvc5::context::CDHashMap.51", ptr %this1, i32 0, i32 1
  %0 = load ptr, ptr %k.addr, align 8
  %call = call ptr @_ZNKSt13unordered_mapINSt7__cxx1112basic_stringIcSt11char_traitsIcESaIcEEEPN4cvc57context11CDOhash_mapIS5_St4pairISt6vectorINS6_4SortESaISB_EESB_ESt4hashIS5_EEESG_St8equal_toIS5_ESaIS9_IKS5_SI_EEE4findERSL_(ptr noundef nonnull align 8 dereferenceable(56) %d_map, ptr noundef nonnull align 8 dereferenceable(32) %0)
  %coerce.dive = getelementptr inbounds %"struct.std::__detail::_Node_const_iterator.182", ptr %i, i32 0, i32 0
  %coerce.dive2 = getelementptr inbounds %"struct.std::__detail::_Node_iterator_base.81", ptr %coerce.dive, i32 0, i32 0
  store ptr %call, ptr %coerce.dive2, align 8
  %d_map3 = getelementptr inbounds %"class.cvc5::context::CDHashMap.51", ptr %this1, i32 0, i32 1
  %call4 = call ptr @_ZNKSt13unordered_mapINSt7__cxx1112basic_stringIcSt11char_traitsIcESaIcEEEPN4cvc57context11CDOhash_mapIS5_St4pairISt6vectorINS6_4SortESaISB_EESB_ESt4hashIS5_EEESG_St8equal_toIS5_ESaIS9_IKS5_SI_EEE3endEv(ptr noundef nonnull align 8 dereferenceable(56) %d_map3) #3
  %coerce.dive5 = getelementptr inbounds %"struct.std::__detail::_Node_const_iterator.182", ptr %ref.tmp, i32 0, i32 0
  %coerce.dive6 = getelementptr inbounds %"struct.std::__detail::_Node_iterator_base.81", ptr %coerce.dive5, i32 0, i32 0
  store ptr %call4, ptr %coerce.dive6, align 8
  %call7 = call noundef zeroext i1 @_ZNSt8__detaileqERKNS_19_Node_iterator_baseISt4pairIKNSt7__cxx1112basic_stringIcSt11char_traitsIcESaIcEEEPN4cvc57context11CDOhash_mapIS7_S1_ISt6vectorINS9_4SortESaISD_EESD_ESt4hashIS7_EEEELb1EEESO_(ptr noundef nonnull align 8 dereferenceable(8) %i, ptr noundef nonnull align 8 dereferenceable(8) %ref.tmp) #3
  br i1 %call7, label %if.then, label %if.else

if.then:                                          ; preds = %entry
  call void @_ZNK4cvc57context9CDHashMapINSt7__cxx1112basic_stringIcSt11char_traitsIcESaIcEEESt4pairISt6vectorINS_4SortESaISA_EESA_ESt4hashIS7_EE3endEv(ptr sret(%"class.cvc5::context::CDHashMap<std::__cxx11::basic_string<char>, std::pair<std::vector<cvc5::Sort>, cvc5::Sort>>::iterator") align 8 %agg.result, ptr noundef nonnull align 8 dereferenceable(112) %this1)
  br label %return

if.else:                                          ; preds = %entry
  %call8 = call noundef nonnull align 8 dereferenceable(40) ptr @_ZNKSt8__detail20_Node_const_iteratorISt4pairIKNSt7__cxx1112basic_stringIcSt11char_traitsIcESaIcEEEPN4cvc57context11CDOhash_mapIS7_S1_ISt6vectorINS9_4SortESaISD_EESD_ESt4hashIS7_EEEELb0ELb1EEdeEv(ptr noundef nonnull align 8 dereferenceable(8) %i) #3
  %second = getelementptr inbounds %"struct.std::pair.82", ptr %call8, i32 0, i32 1
  %1 = load ptr, ptr %second, align 8
  call void @_ZN4cvc57context9CDHashMapINSt7__cxx1112basic_stringIcSt11char_traitsIcESaIcEEESt4pairISt6vectorINS_4SortESaISA_EESA_ESt4hashIS7_EE8iteratorC2EPKNS0_11CDOhash_mapIS7_SD_SF_EE(ptr noundef nonnull align 8 dereferenceable(8) %agg.result, ptr noundef %1)
  br label %return

return:                                           ; preds = %if.else, %if.then
  ret void
}

; Function Attrs: mustprogress uwtable
define noundef zeroext i1 @_ZNK4cvc58internal6parser11SymbolTable14Implementation11isBoundTypeERKNSt7__cxx1112basic_stringIcSt11char_traitsIcESaIcEEE(ptr noundef nonnull align 8 dereferenceable(416) %this, ptr noundef nonnull align 8 dereferenceable(32) %name) #4 align 2 {
entry:
  %this.addr = alloca ptr, align 8
  %name.addr = alloca ptr, align 8
  %ref.tmp = alloca %"class.cvc5::context::CDHashMap<std::__cxx11::basic_string<char>, std::pair<std::vector<cvc5::Sort>, cvc5::Sort>>::iterator", align 8
  %ref.tmp2 = alloca %"class.cvc5::context::CDHashMap<std::__cxx11::basic_string<char>, std::pair<std::vector<cvc5::Sort>, cvc5::Sort>>::iterator", align 8
  store ptr %this, ptr %this.addr, align 8
  store ptr %name, ptr %name.addr, align 8
  %this1 = load ptr, ptr %this.addr, align 8
  %d_typeMap = getelementptr inbounds %"class.cvc5::internal::parser::SymbolTable::Implementation", ptr %this1, i32 0, i32 2
  %0 = load ptr, ptr %name.addr, align 8
  call void @_ZNK4cvc57context9CDHashMapINSt7__cxx1112basic_stringIcSt11char_traitsIcESaIcEEESt4pairISt6vectorINS_4SortESaISA_EESA_ESt4hashIS7_EE4findERKS7_(ptr sret(%"class.cvc5::context::CDHashMap<std::__cxx11::basic_string<char>, std::pair<std::vector<cvc5::Sort>, cvc5::Sort>>::iterator") align 8 %ref.tmp, ptr noundef nonnull align 8 dereferenceable(112) %d_typeMap, ptr noundef nonnull align 8 dereferenceable(32) %0)
  %d_typeMap3 = getelementptr inbounds %"class.cvc5::internal::parser::SymbolTable::Implementation", ptr %this1, i32 0, i32 2
  call void @_ZNK4cvc57context9CDHashMapINSt7__cxx1112basic_stringIcSt11char_traitsIcESaIcEEESt4pairISt6vectorINS_4SortESaISA_EESA_ESt4hashIS7_EE3endEv(ptr sret(%"class.cvc5::context::CDHashMap<std::__cxx11::basic_string<char>, std::pair<std::vector<cvc5::Sort>, cvc5::Sort>>::iterator") align 8 %ref.tmp2, ptr noundef nonnull align 8 dereferenceable(112) %d_typeMap3)
  %call = call noundef zeroext i1 @_ZNK4cvc57context9CDHashMapINSt7__cxx1112basic_stringIcSt11char_traitsIcESaIcEEESt4pairISt6vectorINS_4SortESaISA_EESA_ESt4hashIS7_EE8iteratorneERKSH_(ptr noundef nonnull align 8 dereferenceable(8) %ref.tmp, ptr noundef nonnull align 8 dereferenceable(8) %ref.tmp2)
  ret i1 %call
}