; Function Attrs: mustprogress uwtable
define noundef zeroext i1 @_ZNK4cvc58internal6parser11SymbolTable14Implementation11isBoundTypeERKNSt7__cxx1112basic_stringIcSt11char_traitsIcESaIcEEE(ptr noundef nonnull align 8 dereferenceable(416) %this, ptr noundef nonnull align 8 dereferenceable(32) %name) local_unnamed_addr #3 align 2 {
entry:
  %d_map.i = getelementptr inbounds i8, ptr %this, i64 200
  %call.i.i = tail call ptr @_ZNKSt10_HashtableINSt7__cxx1112basic_stringIcSt11char_traitsIcESaIcEEESt4pairIKS5_PN4cvc57context11CDOhash_mapIS5_S6_ISt6vectorINS8_4SortESaISC_EESC_ESt4hashIS5_EEEESaISK_ENSt8__detail10_Select1stESt8equal_toIS5_ESH_NSM_18_Mod_range_hashingENSM_20_Default_ranged_hashENSM_20_Prime_rehash_policyENSM_17_Hashtable_traitsILb1ELb0ELb1EEEE4findERS7_(ptr noundef nonnull align 8 dereferenceable(56) %d_map.i, ptr noundef nonnull align 8 dereferenceable(32) %name), !noalias !46
  %cmp.i.i = icmp eq ptr %call.i.i, null
  br i1 %cmp.i.i, label %_ZNK4cvc57context9CDHashMapINSt7__cxx1112basic_stringIcSt11char_traitsIcESaIcEEESt4pairISt6vectorINS_4SortESaISA_EESA_ESt4hashIS7_EE4findERKS7_.exit, label %if.else.i

if.else.i:                                        ; preds = %entry
  %second.i = getelementptr inbounds i8, ptr %call.i.i, i64 40
  %0 = load ptr, ptr %second.i, align 8, !noalias !46
  %1 = icmp ne ptr %0, null
  br label %_ZNK4cvc57context9CDHashMapINSt7__cxx1112basic_stringIcSt11char_traitsIcESaIcEEESt4pairISt6vectorINS_4SortESaISA_EESA_ESt4hashIS7_EE4findERKS7_.exit

_ZNK4cvc57context9CDHashMapINSt7__cxx1112basic_stringIcSt11char_traitsIcESaIcEEESt4pairISt6vectorINS_4SortESaISA_EESA_ESt4hashIS7_EE4findERKS7_.exit: ; preds = %entry, %if.else.i
  %storemerge.i = phi i1 [ %1, %if.else.i ], [ false, %entry ]
  ret i1 %storemerge.i
}